target datalayout = "e-m:e-p270:32:32-p271:32:32-p272:64:64-i64:64-i128:128-f80:128-n8:16:32:64-S128"
target triple = "x86_64-pc-linux-gnu"

%struct.X509_pubkey_st = type { ptr, ptr, ptr, ptr, ptr, i8 }
%struct.asn1_string_st = type { i32, i32, ptr, i64 }
%struct.X509_algor_st = type { ptr, ptr }

@.str = private unnamed_addr constant [34 x i8] c"../openssl/crypto/x509/x_pubkey.c\00", align 1
@__func__.X509_PUBKEY_get0 = private unnamed_addr constant [17 x i8] c"X509_PUBKEY_get0\00", align 1

; Function Attrs: nounwind uwtable
define ptr @X509_PUBKEY_get0(ptr noundef %0) #0 {
  %2 = alloca ptr, align 8
  %3 = alloca ptr, align 8
  store ptr %0, ptr %3, align 8, !tbaa !14
  %4 = load ptr, ptr %3, align 8, !tbaa !14
  %5 = icmp eq ptr %4, null
  br i1 %5, label %6, label %7

6:                                                ; preds = %1
  call void @ERR_new()
  call void @ERR_set_debug(ptr noundef @.str, i32 noundef 458, ptr noundef @__func__.X509_PUBKEY_get0)
  call void (i32, i32, ptr, ...) @ERR_set_error(i32 noundef 11, i32 noundef 786690, ptr noundef null)
  store ptr null, ptr %2, align 8
  br label %17

7:                                                ; preds = %1
  %8 = load ptr, ptr %3, align 8, !tbaa !14
  %9 = getelementptr inbounds nuw %struct.X509_pubkey_st, ptr %8, i32 0, i32 2
  %10 = load ptr, ptr %9, align 8, !tbaa !30
  %11 = icmp eq ptr %10, null
  br i1 %11, label %12, label %13

12:                                               ; preds = %7
  call void @ERR_new()
  call void @ERR_set_debug(ptr noundef @.str, i32 noundef 464, ptr noundef @__func__.X509_PUBKEY_get0)
  call void (i32, i32, ptr, ...) @ERR_set_error(i32 noundef 6, i32 noundef 114, ptr noundef null)
  store ptr null, ptr %2, align 8
  br label %17

13:                                               ; preds = %7
  %14 = load ptr, ptr %3, align 8, !tbaa !14
  %15 = getelementptr inbounds nuw %struct.X509_pubkey_st, ptr %14, i32 0, i32 2
  %16 = load ptr, ptr %15, align 8, !tbaa !30
  store ptr %16, ptr %2, align 8
  br label %17

17:                                               ; preds = %13, %12, %6
  %18 = load ptr, ptr %2, align 8
  ret ptr %18
}

; Function Attrs: nounwind uwtable
define i32 @X509_PUBKEY_get0_param(ptr noundef %0, ptr noundef %1, ptr noundef %2, ptr noundef %3, ptr noundef %4) #0 {
  %6 = alloca ptr, align 8
  %7 = alloca ptr, align 8
  %8 = alloca ptr, align 8
  %9 = alloca ptr, align 8
  %10 = alloca ptr, align 8
  store ptr %0, ptr %6, align 8, !tbaa !95
  store ptr %1, ptr %7, align 8, !tbaa !3
  store ptr %2, ptr %8, align 8, !tbaa !97
  store ptr %3, ptr %9, align 8, !tbaa !99
  store ptr %4, ptr %10, align 8, !tbaa !14
  %11 = load ptr, ptr %6, align 8, !tbaa !95
  %12 = icmp ne ptr %11, null
  br i1 %12, label %13, label %20

13:                                               ; preds = %5
  %14 = load ptr, ptr %10, align 8, !tbaa !14
  %15 = getelementptr inbounds nuw %struct.X509_pubkey_st, ptr %14, i32 0, i32 0
  %16 = load ptr, ptr %15, align 8, !tbaa !25
  %17 = getelementptr inbounds nuw %struct.X509_algor_st, ptr %16, i32 0, i32 0
  %18 = load ptr, ptr %17, align 8, !tbaa !39
  %19 = load ptr, ptr %6, align 8, !tbaa !95
  store ptr %18, ptr %19, align 8, !tbaa !94
  br label %20

20:                                               ; preds = %13, %5
  %21 = load ptr, ptr %7, align 8, !tbaa !3
  %22 = icmp ne ptr %21, null
  br i1 %22, label %23, label %36

23:                                               ; preds = %20
  %24 = load ptr, ptr %10, align 8, !tbaa !14
  %25 = getelementptr inbounds nuw %struct.X509_pubkey_st, ptr %24, i32 0, i32 1
  %26 = load ptr, ptr %25, align 8, !tbaa !26
  %27 = getelementptr inbounds nuw %struct.asn1_string_st, ptr %26, i32 0, i32 2
  %28 = load ptr, ptr %27, align 8, !tbaa !27
  %29 = load ptr, ptr %7, align 8, !tbaa !3
  store ptr %28, ptr %29, align 8, !tbaa !12
  %30 = load ptr, ptr %10, align 8, !tbaa !14
  %31 = getelementptr inbounds nuw %struct.X509_pubkey_st, ptr %30, i32 0, i32 1
  %32 = load ptr, ptr %31, align 8, !tbaa !26
  %33 = getelementptr inbounds nuw %struct.asn1_string_st, ptr %32, i32 0, i32 0
  %34 = load i32, ptr %33, align 8, !tbaa !29
  %35 = load ptr, ptr %8, align 8, !tbaa !97
  store i32 %34, ptr %35, align 4, !tbaa !43
  br label %36

36:                                               ; preds = %23, %20
  %37 = load ptr, ptr %9, align 8, !tbaa !99
  %38 = icmp ne ptr %37, null
  br i1 %38, label %39, label %44

39:                                               ; preds = %36
  %40 = load ptr, ptr %10, align 8, !tbaa !14
  %41 = getelementptr inbounds nuw %struct.X509_pubkey_st, ptr %40, i32 0, i32 0
  %42 = load ptr, ptr %41, align 8, !tbaa !25
  %43 = load ptr, ptr %9, align 8, !tbaa !99
  store ptr %42, ptr %43, align 8, !tbaa !101
  br label %44

44:                                               ; preds = %39, %36
  ret i32 1
}

; Function Attrs: nounwind uwtable
define i32 @X509_PUBKEY_eq(ptr noundef %0, ptr noundef %1) #0 {
  %3 = alloca i32, align 4
  %4 = alloca ptr, align 8
  %5 = alloca ptr, align 8
  %6 = alloca ptr, align 8
  %7 = alloca ptr, align 8
  %8 = alloca ptr, align 8
  %9 = alloca ptr, align 8
  %10 = alloca i32, align 4
  store ptr %0, ptr %4, align 8, !tbaa !14
  store ptr %1, ptr %5, align 8, !tbaa !14
  call void @llvm.lifetime.start.p0(i64 8, ptr %6) #5
  call void @llvm.lifetime.start.p0(i64 8, ptr %7) #5
  call void @llvm.lifetime.start.p0(i64 8, ptr %8) #5
  call void @llvm.lifetime.start.p0(i64 8, ptr %9) #5
  %11 = load ptr, ptr %4, align 8, !tbaa !14
  %12 = load ptr, ptr %5, align 8, !tbaa !14
  %13 = icmp eq ptr %11, %12
  br i1 %13, label %14, label %15

14:                                               ; preds = %2
  store i32 1, ptr %3, align 4
  store i32 1, ptr %10, align 4
  br label %56

15:                                               ; preds = %2
  %16 = load ptr, ptr %4, align 8, !tbaa !14
  %17 = icmp eq ptr %16, null
  br i1 %17, label %21, label %18

18:                                               ; preds = %15
  %19 = load ptr, ptr %5, align 8, !tbaa !14
  %20 = icmp eq ptr %19, null
  br i1 %20, label %21, label %22

21:                                               ; preds = %18, %15
  store i32 0, ptr %3, align 4
  store i32 1, ptr %10, align 4
  br label %56

22:                                               ; preds = %18
  %23 = load ptr, ptr %4, align 8, !tbaa !14
  %24 = call i32 @X509_PUBKEY_get0_param(ptr noundef null, ptr noundef null, ptr noundef null, ptr noundef %6, ptr noundef %23)
  %25 = icmp ne i32 %24, 0
  br i1 %25, label %26, label %36

26:                                               ; preds = %22
  %27 = load ptr, ptr %6, align 8, !tbaa !101
  %28 = icmp eq ptr %27, null
  br i1 %28, label %36, label %29

29:                                               ; preds = %26
  %30 = load ptr, ptr %5, align 8, !tbaa !14
  %31 = call i32 @X509_PUBKEY_get0_param(ptr noundef null, ptr noundef null, ptr noundef null, ptr noundef %7, ptr noundef %30)
  %32 = icmp ne i32 %31, 0
  br i1 %32, label %33, label %36

33:                                               ; preds = %29
  %34 = load ptr, ptr %7, align 8, !tbaa !101
  %35 = icmp eq ptr %34, null
  br i1 %35, label %36, label %37

36:                                               ; preds = %33, %29, %26, %22
  store i32 -2, ptr %3, align 4
  store i32 1, ptr %10, align 4
  br label %56

37:                                               ; preds = %33
  %38 = load ptr, ptr %6, align 8, !tbaa !101
  %39 = load ptr, ptr %7, align 8, !tbaa !101
  %40 = call i32 @X509_ALGOR_cmp(ptr noundef %38, ptr noundef %39)
  %41 = icmp ne i32 %40, 0
  br i1 %41, label %42, label %43

42:                                               ; preds = %37
  store i32 0, ptr %3, align 4
  store i32 1, ptr %10, align 4
  br label %56

43:                                               ; preds = %37
  %44 = load ptr, ptr %4, align 8, !tbaa !14
  %45 = call ptr @X509_PUBKEY_get0(ptr noundef %44)
  store ptr %45, ptr %8, align 8, !tbaa !46
  %46 = icmp eq ptr %45, null
  br i1 %46, label %51, label %47

47:                                               ; preds = %43
  %48 = load ptr, ptr %5, align 8, !tbaa !14
  %49 = call ptr @X509_PUBKEY_get0(ptr noundef %48)
  store ptr %49, ptr %9, align 8, !tbaa !46
  %50 = icmp eq ptr %49, null
  br i1 %50, label %51, label %52

51:                                               ; preds = %47, %43
  store i32 -2, ptr %3, align 4
  store i32 1, ptr %10, align 4
  br label %56

52:                                               ; preds = %47
  %53 = load ptr, ptr %8, align 8, !tbaa !46
  %54 = load ptr, ptr %9, align 8, !tbaa !46
  %55 = call i32 @EVP_PKEY_eq(ptr noundef %53, ptr noundef %54)
  store i32 %55, ptr %3, align 4
  store i32 1, ptr %10, align 4
  br label %56

56:                                               ; preds = %52, %51, %42, %36, %21, %14
  call void @llvm.lifetime.end.p0(i64 8, ptr %9) #5
  call void @llvm.lifetime.end.p0(i64 8, ptr %8) #5
  call void @llvm.lifetime.end.p0(i64 8, ptr %7) #5
  call void @llvm.lifetime.end.p0(i64 8, ptr %6) #5
  %57 = load i32, ptr %3, align 4
  ret i32 %57
}