; Function Attrs: nounwind uwtable
define i32 @X509_PUBKEY_eq(ptr noundef readonly captures(address) %0, ptr noundef readonly captures(address) %1) local_unnamed_addr #0 {
  %3 = icmp eq ptr %0, %1
  br i1 %3, label %23, label %4

4:                                                ; preds = %2
  %5 = icmp eq ptr %0, null
  %6 = icmp eq ptr %1, null
  %or.cond = or i1 %5, %6
  br i1 %or.cond, label %23, label %7

7:                                                ; preds = %4
  %8 = load ptr, ptr %0, align 8, !tbaa !17
  %9 = icmp eq ptr %8, null
  br i1 %9, label %23, label %10

10:                                               ; preds = %7
  %11 = load ptr, ptr %1, align 8, !tbaa !17
  %12 = icmp eq ptr %11, null
  br i1 %12, label %23, label %13

13:                                               ; preds = %10
  %14 = tail call i32 @X509_ALGOR_cmp(ptr noundef nonnull %8, ptr noundef nonnull %11) #9
  %.not = icmp eq i32 %14, 0
  br i1 %.not, label %15, label %23

15:                                               ; preds = %13
  %16 = getelementptr inbounds nuw i8, ptr %0, i64 16
  %17 = load ptr, ptr %16, align 8, !tbaa !19
  %18 = icmp eq ptr %17, null
  br i1 %18, label %X509_PUBKEY_get0.exit.thread, label %X509_PUBKEY_get0.exit

X509_PUBKEY_get0.exit.thread:                     ; preds = %15
  tail call void @ERR_new() #9
  tail call void @ERR_set_debug(ptr noundef nonnull @.str, i32 noundef 464, ptr noundef nonnull @__func__.X509_PUBKEY_get0) #9
  tail call void (i32, i32, ptr, ...) @ERR_set_error(i32 noundef 6, i32 noundef 114, ptr noundef null) #9
  br label %23

X509_PUBKEY_get0.exit:                            ; preds = %15
  %19 = getelementptr inbounds nuw i8, ptr %1, i64 16
  %20 = load ptr, ptr %19, align 8, !tbaa !19
  %21 = icmp eq ptr %20, null
  br i1 %21, label %X509_PUBKEY_get0.exit21.thread, label %X509_PUBKEY_get0.exit21

X509_PUBKEY_get0.exit21.thread:                   ; preds = %X509_PUBKEY_get0.exit
  tail call void @ERR_new() #9
  tail call void @ERR_set_debug(ptr noundef nonnull @.str, i32 noundef 464, ptr noundef nonnull @__func__.X509_PUBKEY_get0) #9
  tail call void (i32, i32, ptr, ...) @ERR_set_error(i32 noundef 6, i32 noundef 114, ptr noundef null) #9
  br label %23

X509_PUBKEY_get0.exit21:                          ; preds = %X509_PUBKEY_get0.exit
  %22 = tail call i32 @EVP_PKEY_eq(ptr noundef nonnull %17, ptr noundef nonnull %20) #9
  br label %23

23:                                               ; preds = %X509_PUBKEY_get0.exit21.thread, %X509_PUBKEY_get0.exit.thread, %13, %7, %10, %4, %2, %X509_PUBKEY_get0.exit21
  %.0 = phi i32 [ %22, %X509_PUBKEY_get0.exit21 ], [ 1, %2 ], [ 0, %4 ], [ -2, %10 ], [ -2, %7 ], [ 0, %13 ], [ -2, %X509_PUBKEY_get0.exit.thread ], [ -2, %X509_PUBKEY_get0.exit21.thread ]
  ret i32 %.0
}